; Function Attrs: mustprogress nounwind uwtable
define void @_ZN32pxrInternal_v0_24__pxrReserved__8JsWriterD2Ev(ptr noundef nonnull align 8 captures(none) dereferenceable(8) %0) unnamed_addr #4 align 2 personality ptr @__gxx_personality_v0 {
  %2 = load ptr, ptr %0, align 8
  %.not.i = icmp eq ptr %2, null
  br i1 %.not.i, label %_ZNSt10unique_ptrIN32pxrInternal_v0_24__pxrReserved__8JsWriter5_ImplESt14default_deleteIS2_EED2Ev.exit, label %3

3:                                                ; preds = %1
  %4 = load ptr, ptr %2, align 8
  %.not.i.i.i.i = icmp eq ptr %4, null
  br i1 %.not.i.i.i.i, label %_ZNKSt14default_deleteIN32pxrInternal_v0_24__pxrReserved__8JsWriter5_ImplEEclEPS2_.exit.i, label %_ZNKSt14default_deleteIN32pxrInternal_v0_24__pxrReserved__12_GLOBAL__N_129Js_PolymorphicWriterInterfaceEEclEPS2_.exit.i.i.i.i

_ZNKSt14default_deleteIN32pxrInternal_v0_24__pxrReserved__12_GLOBAL__N_129Js_PolymorphicWriterInterfaceEEclEPS2_.exit.i.i.i.i: ; preds = %3
  %5 = load ptr, ptr %4, align 8
  %6 = getelementptr inbounds nuw i8, ptr %5, i64 8
  %7 = load ptr, ptr %6, align 8
  tail call void %7(ptr noundef nonnull align 8 dereferenceable(8) %4) #24
  br label %_ZNKSt14default_deleteIN32pxrInternal_v0_24__pxrReserved__8JsWriter5_ImplEEclEPS2_.exit.i

_ZNKSt14default_deleteIN32pxrInternal_v0_24__pxrReserved__8JsWriter5_ImplEEclEPS2_.exit.i: ; preds = %_ZNKSt14default_deleteIN32pxrInternal_v0_24__pxrReserved__12_GLOBAL__N_129Js_PolymorphicWriterInterfaceEEclEPS2_.exit.i.i.i.i, %3
  tail call void @_ZdlPvm(ptr noundef nonnull %2, i64 noundef 16) #25
  br label %_ZNSt10unique_ptrIN32pxrInternal_v0_24__pxrReserved__8JsWriter5_ImplESt14default_deleteIS2_EED2Ev.exit

_ZNSt10unique_ptrIN32pxrInternal_v0_24__pxrReserved__8JsWriter5_ImplESt14default_deleteIS2_EED2Ev.exit: ; preds = %1, %_ZNKSt14default_deleteIN32pxrInternal_v0_24__pxrReserved__8JsWriter5_ImplEEclEPS2_.exit.i
  store ptr null, ptr %0, align 8
  ret void
}